target datalayout = "e-m:e-p270:32:32-p271:32:32-p272:64:64-i64:64-i128:128-f80:128-n8:16:32:64-S128"
target triple = "x86_64-pc-linux-gnu"

%"class.smt::qi_queue" = type { ptr, ptr, ptr, ptr, %"struct.smt::qi_queue_stats", %"class.smt::checker", %class.obj_ref, %class.obj_ref, %class.cost_parser, %class.cost_evaluator, %class.cached_var_subst, %class.svector.37, double, %class.svector.39, %class.svector.39, %class.ref_vector, %class.svector.29, %class.svector.41 }
%"struct.smt::qi_queue_stats" = type { i32, i32 }
%"class.smt::checker" = type { ptr, ptr, [2 x %class.obj_map], %class.obj_map.0, i32, ptr }
%class.obj_map = type { %class.core_hashtable }
%class.core_hashtable = type <{ ptr, i32, i32, i32, [4 x i8] }>
%class.obj_map.0 = type { %class.core_hashtable.1 }
%class.core_hashtable.1 = type <{ ptr, i32, i32, i32, [4 x i8] }>
%class.obj_ref = type { ptr, ptr }
%class.cost_parser = type { %class.simple_parser, %class.arith_util, %class.ref_vector.11 }
%class.simple_parser = type { ptr, ptr, %class.map, %class.map.7, %class.ref_vector }
%class.map = type { %class.table2map }
%class.table2map = type { %class.core_hashtable.5 }
%class.core_hashtable.5 = type <{ ptr, i32, i32, i32, [4 x i8] }>
%class.map.7 = type { %class.table2map.8 }
%class.table2map.8 = type { %class.core_hashtable.9 }
%class.core_hashtable.9 = type <{ ptr, i32, i32, i32, [4 x i8] }>
%class.arith_util = type { ptr, ptr }
%class.ref_vector.11 = type { %class.ref_vector_core.12 }
%class.ref_vector_core.12 = type { %class.ref_manager_wrapper.13, %class.ptr_vector.14 }
%class.ref_manager_wrapper.13 = type { ptr }
%class.ptr_vector.14 = type { %class.vector.15 }
%class.vector.15 = type { ptr }
%class.cost_evaluator = type { ptr, %class.arith_util, i32, ptr }
%class.cached_var_subst = type { ptr, %class.var_subst, %class.ref_vector, %class.map.31, %class.region, %class.ptr_vector.35, ptr }
%class.var_subst = type { %class.beta_reducer, i8, [7 x i8] }
%class.beta_reducer = type <{ %class.rewriter_tpl, [8 x i8] }>
%class.rewriter_tpl = type { %class.rewriter_core, ptr, i32, %class.ptr_vector, %class.var_shifter, %class.inv_var_shifter, %class.obj_ref, %class.obj_ref.28, %class.obj_ref.28, %class.svector.29 }
%class.rewriter_core = type { ptr, ptr, i8, i8, %class.ptr_vector.16, ptr, %class.svector, %class.ref_vector, %class.ptr_vector.16, ptr, %class.ref_vector.19, %class.obj_hashtable, ptr, i32, %class.svector.26 }
%class.svector = type { %class.vector.18 }
%class.vector.18 = type { ptr }
%class.ptr_vector.16 = type { %class.vector.17 }
%class.vector.17 = type { ptr }
%class.ref_vector.19 = type { %class.ref_vector_core.20 }
%class.ref_vector_core.20 = type { %class.ref_manager_wrapper.21, %class.ptr_vector.22 }
%class.ref_manager_wrapper.21 = type { ptr }
%class.ptr_vector.22 = type { %class.vector.23 }
%class.vector.23 = type { ptr }
%class.obj_hashtable = type { %class.core_hashtable.base.25, [4 x i8] }
%class.core_hashtable.base.25 = type <{ ptr, i32, i32, i32 }>
%class.svector.26 = type { %class.vector.27 }
%class.vector.27 = type { ptr }
%class.ptr_vector = type { %class.vector }
%class.vector = type { ptr }
%class.var_shifter = type <{ %class.var_shifter_core, i32, i32, i32, [4 x i8] }>
%class.var_shifter_core = type { %class.rewriter_core }
%class.inv_var_shifter = type <{ %class.var_shifter_core, i32, [4 x i8] }>
%class.obj_ref.28 = type { ptr, ptr }
%class.map.31 = type { %class.table2map.32 }
%class.table2map.32 = type { %class.core_hashtable.33 }
%class.core_hashtable.33 = type <{ ptr, i32, i32, i32, [4 x i8] }>
%class.region = type { ptr, ptr, ptr, ptr, ptr }
%class.ptr_vector.35 = type { %class.vector.36 }
%class.vector.36 = type { ptr }
%class.svector.37 = type { %class.vector.38 }
%class.vector.38 = type { ptr }
%class.svector.39 = type { %class.vector.40 }
%class.vector.40 = type { ptr }
%class.ref_vector = type { %class.ref_vector_core }
%class.ref_vector_core = type { %class.ref_manager_wrapper, %class.ptr_vector }
%class.ref_manager_wrapper = type { ptr }
%class.svector.29 = type { %class.vector.30 }
%class.vector.30 = type { ptr }
%class.svector.41 = type { %class.vector.42 }
%class.vector.42 = type { ptr }
%"class.smt::fingerprint" = type { ptr, i32, ptr, i32, ptr }
%"struct.smt::qi_queue::entry" = type { ptr, float, i32 }

; Function Attrs: mustprogress uwtable
define linkonce_odr hidden noundef nonnull align 8 dereferenceable(8) ptr @_ZN6vectorIN3smt8qi_queue5entryELb0EjE9push_backEOS2_(ptr noundef nonnull align 8 dereferenceable(8) %0, ptr noundef nonnull align 8 dereferenceable(16) %1) #6 comdat align 2 {
  %3 = alloca ptr, align 8
  %4 = alloca ptr, align 8
  store ptr %0, ptr %3, align 8, !tbaa !603
  store ptr %1, ptr %4, align 8, !tbaa !650
  %5 = load ptr, ptr %3, align 8
  %6 = getelementptr inbounds nuw %class.vector.40, ptr %5, i32 0, i32 0
  %7 = load ptr, ptr %6, align 8, !tbaa !651
  %8 = icmp eq ptr %7, null
  br i1 %8, label %19, label %9

9:                                                ; preds = %2
  %10 = getelementptr inbounds nuw %class.vector.40, ptr %5, i32 0, i32 0
  %11 = load ptr, ptr %10, align 8, !tbaa !651
  %12 = getelementptr inbounds i32, ptr %11, i64 -1
  %13 = load i32, ptr %12, align 4, !tbaa !8
  %14 = getelementptr inbounds nuw %class.vector.40, ptr %5, i32 0, i32 0
  %15 = load ptr, ptr %14, align 8, !tbaa !651
  %16 = getelementptr inbounds i32, ptr %15, i64 -2
  %17 = load i32, ptr %16, align 4, !tbaa !8
  %18 = icmp eq i32 %13, %17
  br i1 %18, label %19, label %20

19:                                               ; preds = %9, %2
  call void @_ZN6vectorIN3smt8qi_queue5entryELb0EjE13expand_vectorEv(ptr noundef nonnull align 8 dereferenceable(8) %5)
  br label %20

20:                                               ; preds = %19, %9
  %21 = getelementptr inbounds nuw %class.vector.40, ptr %5, i32 0, i32 0
  %22 = load ptr, ptr %21, align 8, !tbaa !651
  %23 = getelementptr inbounds nuw %class.vector.40, ptr %5, i32 0, i32 0
  %24 = load ptr, ptr %23, align 8, !tbaa !651
  %25 = getelementptr inbounds i32, ptr %24, i64 -1
  %26 = load i32, ptr %25, align 4, !tbaa !8
  %27 = zext i32 %26 to i64
  %28 = getelementptr inbounds nuw %"struct.smt::qi_queue::entry", ptr %22, i64 %27
  %29 = load ptr, ptr %4, align 8, !tbaa !650
  call void @llvm.memcpy.p0.p0.i64(ptr align 8 %28, ptr align 8 %29, i64 16, i1 false), !tbaa.struct !652
  %30 = getelementptr inbounds nuw %class.vector.40, ptr %5, i32 0, i32 0
  %31 = load ptr, ptr %30, align 8, !tbaa !651
  %32 = getelementptr inbounds i32, ptr %31, i64 -1
  %33 = load i32, ptr %32, align 4, !tbaa !8
  %34 = add i32 %33, 1
  store i32 %34, ptr %32, align 4, !tbaa !8
  ret ptr %5
}

; Function Attrs: mustprogress nounwind uwtable
define linkonce_odr hidden void @_ZN3smt8qi_queue5entryC2EPNS_11fingerprintEfj(ptr noundef nonnull align 8 dereferenceable(16) %0, ptr noundef %1, float noundef %2, i32 noundef %3) unnamed_addr #4 comdat align 2 {
  %5 = alloca ptr, align 8
  %6 = alloca ptr, align 8
  %7 = alloca float, align 4
  %8 = alloca i32, align 4
  store ptr %0, ptr %5, align 8, !tbaa !650
  store ptr %1, ptr %6, align 8, !tbaa !647
  store float %2, ptr %7, align 4, !tbaa !591
  store i32 %3, ptr %8, align 4, !tbaa !8
  %9 = load ptr, ptr %5, align 8
  %10 = getelementptr inbounds nuw %"struct.smt::qi_queue::entry", ptr %9, i32 0, i32 0
  %11 = load ptr, ptr %6, align 8, !tbaa !647
  store ptr %11, ptr %10, align 8, !tbaa !654
  %12 = getelementptr inbounds nuw %"struct.smt::qi_queue::entry", ptr %9, i32 0, i32 1
  %13 = load float, ptr %7, align 4, !tbaa !591
  store float %13, ptr %12, align 8, !tbaa !656
  %14 = getelementptr inbounds nuw %"struct.smt::qi_queue::entry", ptr %9, i32 0, i32 2
  %15 = load i32, ptr %8, align 4, !tbaa !8
  %16 = load i32, ptr %14, align 4
  %17 = and i32 %15, 2147483647
  %18 = and i32 %16, -2147483648
  %19 = or i32 %18, %17
  store i32 %19, ptr %14, align 4
  %20 = getelementptr inbounds nuw %"struct.smt::qi_queue::entry", ptr %9, i32 0, i32 2
  %21 = load i32, ptr %20, align 4
  %22 = and i32 %21, 2147483647
  %23 = or i32 %22, 0
  store i32 %23, ptr %20, align 4
  ret void
}

; Function Attrs: mustprogress nounwind uwtable
define linkonce_odr hidden noundef ptr @_ZNK3smt11fingerprint8get_dataEv(ptr noundef nonnull align 8 dereferenceable(40) %0) #4 comdat align 2 {
  %2 = alloca ptr, align 8
  store ptr %0, ptr %2, align 8, !tbaa !647
  %3 = load ptr, ptr %2, align 8
  %4 = getelementptr inbounds nuw %"class.smt::fingerprint", ptr %3, i32 0, i32 0
  %5 = load ptr, ptr %4, align 8, !tbaa !649
  ret ptr %5
}

; Function Attrs: mustprogress uwtable
define hidden void @_ZN3smt8qi_queue6insertEPNS_11fingerprintEP3appjjj(ptr noundef nonnull align 8 dereferenceable(1048) %0, ptr noundef %1, ptr noundef %2, i32 noundef %3, i32 noundef %4, i32 noundef %5) #6 align 2 {
  %7 = alloca ptr, align 8
  %8 = alloca ptr, align 8
  %9 = alloca ptr, align 8
  %10 = alloca i32, align 4
  %11 = alloca i32, align 4
  %12 = alloca i32, align 4
  %13 = alloca ptr, align 8
  %14 = alloca float, align 4
  %15 = alloca %"struct.smt::qi_queue::entry", align 8
  store ptr %0, ptr %7, align 8, !tbaa !28
  store ptr %1, ptr %8, align 8, !tbaa !647
  store ptr %2, ptr %9, align 8, !tbaa !624
  store i32 %3, ptr %10, align 4, !tbaa !8
  store i32 %4, ptr %11, align 4, !tbaa !8
  store i32 %5, ptr %12, align 4, !tbaa !8
  %16 = load ptr, ptr %7, align 8
  call void @llvm.lifetime.start.p0(i64 8, ptr %13) #3
  %17 = load ptr, ptr %8, align 8, !tbaa !647
  %18 = call noundef ptr @_ZNK3smt11fingerprint8get_dataEv(ptr noundef nonnull align 8 dereferenceable(40) %17)
  store ptr %18, ptr %13, align 8, !tbaa !622
  call void @llvm.lifetime.start.p0(i64 4, ptr %14) #3
  %19 = load ptr, ptr %13, align 8, !tbaa !622
  %20 = load ptr, ptr %9, align 8, !tbaa !624
  %21 = load i32, ptr %10, align 4, !tbaa !8
  %22 = load i32, ptr %11, align 4, !tbaa !8
  %23 = load i32, ptr %12, align 4, !tbaa !8
  %24 = call noundef float @_ZN3smt8qi_queue8get_costEP10quantifierP3appjjj(ptr noundef nonnull align 8 dereferenceable(1048) %16, ptr noundef %19, ptr noundef %20, i32 noundef %21, i32 noundef %22, i32 noundef %23)
  store float %24, ptr %14, align 4, !tbaa !591
  %25 = getelementptr inbounds nuw %"class.smt::qi_queue", ptr %16, i32 0, i32 13
  call void @llvm.lifetime.start.p0(i64 16, ptr %15) #3
  %26 = load ptr, ptr %8, align 8, !tbaa !647
  %27 = load float, ptr %14, align 4, !tbaa !591
  %28 = load i32, ptr %10, align 4, !tbaa !8
  call void @_ZN3smt8qi_queue5entryC2EPNS_11fingerprintEfj(ptr noundef nonnull align 8 dereferenceable(16) %15, ptr noundef %26, float noundef %27, i32 noundef %28)
  %29 = call noundef nonnull align 8 dereferenceable(8) ptr @_ZN6vectorIN3smt8qi_queue5entryELb0EjE9push_backEOS2_(ptr noundef nonnull align 8 dereferenceable(8) %25, ptr noundef nonnull align 8 dereferenceable(16) %15)
  call void @llvm.lifetime.end.p0(i64 16, ptr %15) #3
  call void @llvm.lifetime.end.p0(i64 4, ptr %14) #3
  call void @llvm.lifetime.end.p0(i64 8, ptr %13) #3
  ret void
}