; Function Attrs: mustprogress uwtable
define hidden void @_ZN3smt8qi_queue6insertEPNS_11fingerprintEP3appjjj(ptr noundef nonnull align 8 dereferenceable(1048) %0, ptr noundef %1, ptr noundef captures(address_is_null) %2, i32 noundef %3, i32 noundef %4, i32 noundef %5) local_unnamed_addr #4 align 2 {
  %7 = load ptr, ptr %1, align 8, !tbaa !609
  %8 = tail call noundef float @_ZN3smt8qi_queue8get_costEP10quantifierP3appjjj(ptr noundef nonnull align 8 dereferenceable(1048) %0, ptr noundef %7, ptr noundef %2, i32 noundef %3, i32 noundef %4, i32 noundef %5)
  %9 = getelementptr inbounds nuw i8, ptr %0, i64 1000
  %10 = load ptr, ptr %9, align 8, !tbaa !567
  %11 = icmp eq ptr %10, null
  br i1 %11, label %18, label %12

12:                                               ; preds = %6
  %13 = getelementptr inbounds i8, ptr %10, i64 -4
  %14 = load i32, ptr %13, align 4, !tbaa !555
  %15 = getelementptr inbounds i8, ptr %10, i64 -8
  %16 = load i32, ptr %15, align 4, !tbaa !555
  %17 = icmp eq i32 %14, %16
  br i1 %17, label %18, label %_ZN6vectorIN3smt8qi_queue5entryELb0EjE9push_backEOS2_.exit

18:                                               ; preds = %12, %6
  tail call void @_ZN6vectorIN3smt8qi_queue5entryELb0EjE13expand_vectorEv(ptr noundef nonnull align 8 dereferenceable(8) %9)
  %.pre.i = load ptr, ptr %9, align 8, !tbaa !567
  %.phi.trans.insert.i = getelementptr inbounds i8, ptr %.pre.i, i64 -4
  %.pre2.i = load i32, ptr %.phi.trans.insert.i, align 4, !tbaa !555
  br label %_ZN6vectorIN3smt8qi_queue5entryELb0EjE9push_backEOS2_.exit

_ZN6vectorIN3smt8qi_queue5entryELb0EjE9push_backEOS2_.exit: ; preds = %12, %18
  %19 = phi i32 [ %.pre2.i, %18 ], [ %14, %12 ]
  %20 = phi ptr [ %.pre.i, %18 ], [ %10, %12 ]
  %21 = and i32 %3, 2147483647
  %22 = zext i32 %19 to i64
  %23 = getelementptr inbounds nuw %"struct.smt::qi_queue::entry", ptr %20, i64 %22
  store ptr %1, ptr %23, align 8, !tbaa !610
  %.sroa.4.0..sroa_idx = getelementptr inbounds nuw i8, ptr %23, i64 8
  store float %8, ptr %.sroa.4.0..sroa_idx, align 8, !tbaa !558
  %.sroa.5.0..sroa_idx = getelementptr inbounds nuw i8, ptr %23, i64 12
  store i32 %21, ptr %.sroa.5.0..sroa_idx, align 4, !tbaa !612
  %24 = load ptr, ptr %9, align 8, !tbaa !567
  %25 = getelementptr inbounds i8, ptr %24, i64 -4
  %26 = load i32, ptr %25, align 4, !tbaa !555
  %27 = add i32 %26, 1
  store i32 %27, ptr %25, align 4, !tbaa !555
  ret void
}